target datalayout = "e-m:e-p270:32:32-p271:32:32-p272:64:64-i64:64-i128:128-f80:128-n8:16:32:64-S128"
target triple = "x86_64-pc-linux-gnu"

%struct.mbedtls_mpi = type { ptr, i16, i16 }
%struct.mbedtls_rsa_context = type { i32, i64, %struct.mbedtls_mpi, %struct.mbedtls_mpi, %struct.mbedtls_mpi, %struct.mbedtls_mpi, %struct.mbedtls_mpi, %struct.mbedtls_mpi, %struct.mbedtls_mpi, %struct.mbedtls_mpi, %struct.mbedtls_mpi, %struct.mbedtls_mpi, %struct.mbedtls_mpi, %struct.mbedtls_mpi, %struct.mbedtls_mpi, i32, i32 }

@.str = private unnamed_addr constant [117 x i8] c"generated/home/dtcxzyw/WorkSpace/Projects/compilers/llvm-opt-benchmark/bench/lief/bench_build/mbed_src/library/rsa.c\00", align 1

; Function Attrs: inlinehint nounwind uwtable
define internal i32 @mbedtls_error_add(i32 noundef %0, i32 noundef %1, ptr noundef %2, i32 noundef %3) #3 {
  %5 = alloca i32, align 4
  %6 = alloca i32, align 4
  %7 = alloca ptr, align 8
  %8 = alloca i32, align 4
  store i32 %0, ptr %5, align 4, !tbaa !12
  store i32 %1, ptr %6, align 4, !tbaa !12
  store ptr %2, ptr %7, align 8, !tbaa !8
  store i32 %3, ptr %8, align 4, !tbaa !12
  %9 = load i32, ptr %5, align 4, !tbaa !12
  %10 = load i32, ptr %6, align 4, !tbaa !12
  %11 = add nsw i32 %9, %10
  ret i32 %11
}

; Function Attrs: nounwind uwtable
define hidden i32 @mbedtls_rsa_import(ptr noundef %0, ptr noundef %1, ptr noundef %2, ptr noundef %3, ptr noundef %4, ptr noundef %5) #0 {
  %7 = alloca i32, align 4
  %8 = alloca ptr, align 8
  %9 = alloca ptr, align 8
  %10 = alloca ptr, align 8
  %11 = alloca ptr, align 8
  %12 = alloca ptr, align 8
  %13 = alloca ptr, align 8
  %14 = alloca i32, align 4
  %15 = alloca i32, align 4
  store ptr %0, ptr %8, align 8, !tbaa !3
  store ptr %1, ptr %9, align 8, !tbaa !17
  store ptr %2, ptr %10, align 8, !tbaa !17
  store ptr %3, ptr %11, align 8, !tbaa !17
  store ptr %4, ptr %12, align 8, !tbaa !17
  store ptr %5, ptr %13, align 8, !tbaa !17
  call void @llvm.lifetime.start.p0(i64 4, ptr %14) #9
  store i32 -110, ptr %14, align 4, !tbaa !12
  %16 = load ptr, ptr %9, align 8, !tbaa !17
  %17 = icmp ne ptr %16, null
  br i1 %17, label %18, label %24

18:                                               ; preds = %6
  %19 = load ptr, ptr %8, align 8, !tbaa !3
  %20 = getelementptr inbounds nuw %struct.mbedtls_rsa_context, ptr %19, i32 0, i32 2
  %21 = load ptr, ptr %9, align 8, !tbaa !17
  %22 = call i32 @mbedtls_mpi_copy(ptr noundef %20, ptr noundef %21)
  store i32 %22, ptr %14, align 4, !tbaa !12
  %23 = icmp ne i32 %22, 0
  br i1 %23, label %60, label %24

24:                                               ; preds = %18, %6
  %25 = load ptr, ptr %10, align 8, !tbaa !17
  %26 = icmp ne ptr %25, null
  br i1 %26, label %27, label %33

27:                                               ; preds = %24
  %28 = load ptr, ptr %8, align 8, !tbaa !3
  %29 = getelementptr inbounds nuw %struct.mbedtls_rsa_context, ptr %28, i32 0, i32 5
  %30 = load ptr, ptr %10, align 8, !tbaa !17
  %31 = call i32 @mbedtls_mpi_copy(ptr noundef %29, ptr noundef %30)
  store i32 %31, ptr %14, align 4, !tbaa !12
  %32 = icmp ne i32 %31, 0
  br i1 %32, label %60, label %33

33:                                               ; preds = %27, %24
  %34 = load ptr, ptr %11, align 8, !tbaa !17
  %35 = icmp ne ptr %34, null
  br i1 %35, label %36, label %42

36:                                               ; preds = %33
  %37 = load ptr, ptr %8, align 8, !tbaa !3
  %38 = getelementptr inbounds nuw %struct.mbedtls_rsa_context, ptr %37, i32 0, i32 6
  %39 = load ptr, ptr %11, align 8, !tbaa !17
  %40 = call i32 @mbedtls_mpi_copy(ptr noundef %38, ptr noundef %39)
  store i32 %40, ptr %14, align 4, !tbaa !12
  %41 = icmp ne i32 %40, 0
  br i1 %41, label %60, label %42

42:                                               ; preds = %36, %33
  %43 = load ptr, ptr %12, align 8, !tbaa !17
  %44 = icmp ne ptr %43, null
  br i1 %44, label %45, label %51

45:                                               ; preds = %42
  %46 = load ptr, ptr %8, align 8, !tbaa !3
  %47 = getelementptr inbounds nuw %struct.mbedtls_rsa_context, ptr %46, i32 0, i32 4
  %48 = load ptr, ptr %12, align 8, !tbaa !17
  %49 = call i32 @mbedtls_mpi_copy(ptr noundef %47, ptr noundef %48)
  store i32 %49, ptr %14, align 4, !tbaa !12
  %50 = icmp ne i32 %49, 0
  br i1 %50, label %60, label %51

51:                                               ; preds = %45, %42
  %52 = load ptr, ptr %13, align 8, !tbaa !17
  %53 = icmp ne ptr %52, null
  br i1 %53, label %54, label %63

54:                                               ; preds = %51
  %55 = load ptr, ptr %8, align 8, !tbaa !3
  %56 = getelementptr inbounds nuw %struct.mbedtls_rsa_context, ptr %55, i32 0, i32 3
  %57 = load ptr, ptr %13, align 8, !tbaa !17
  %58 = call i32 @mbedtls_mpi_copy(ptr noundef %56, ptr noundef %57)
  store i32 %58, ptr %14, align 4, !tbaa !12
  %59 = icmp ne i32 %58, 0
  br i1 %59, label %60, label %63

60:                                               ; preds = %54, %45, %36, %27, %18
  %61 = load i32, ptr %14, align 4, !tbaa !12
  %62 = call i32 @mbedtls_error_add(i32 noundef -16512, i32 noundef %61, ptr noundef @.str, i32 noundef 584)
  store i32 %62, ptr %7, align 4
  store i32 1, ptr %15, align 4
  br label %73

63:                                               ; preds = %54, %51
  %64 = load ptr, ptr %9, align 8, !tbaa !17
  %65 = icmp ne ptr %64, null
  br i1 %65, label %66, label %72

66:                                               ; preds = %63
  %67 = load ptr, ptr %8, align 8, !tbaa !3
  %68 = getelementptr inbounds nuw %struct.mbedtls_rsa_context, ptr %67, i32 0, i32 2
  %69 = call i64 @mbedtls_mpi_size(ptr noundef %68)
  %70 = load ptr, ptr %8, align 8, !tbaa !3
  %71 = getelementptr inbounds nuw %struct.mbedtls_rsa_context, ptr %70, i32 0, i32 1
  store i64 %69, ptr %71, align 8, !tbaa !19
  br label %72

72:                                               ; preds = %66, %63
  store i32 0, ptr %7, align 4
  store i32 1, ptr %15, align 4
  br label %73

73:                                               ; preds = %72, %60
  call void @llvm.lifetime.end.p0(i64 4, ptr %14) #9
  %74 = load i32, ptr %7, align 4
  ret i32 %74
}