; Function Attrs: nounwind uwtable
define hidden range(i32 -2147483648, 2147467136) i32 @mbedtls_rsa_import(ptr noundef %0, ptr noundef %1, ptr noundef %2, ptr noundef %3, ptr noundef %4, ptr noundef %5) local_unnamed_addr #0 {
  %.not = icmp eq ptr %1, null
  br i1 %.not, label %10, label %7

7:                                                ; preds = %6
  %8 = getelementptr inbounds nuw i8, ptr %0, i64 16
  %9 = tail call i32 @mbedtls_mpi_copy(ptr noundef nonnull %8, ptr noundef nonnull %1) #14
  %.not30 = icmp eq i32 %9, 0
  br i1 %.not30, label %10, label %26

10:                                               ; preds = %7, %6
  %.not31 = icmp eq ptr %2, null
  br i1 %.not31, label %14, label %11

11:                                               ; preds = %10
  %12 = getelementptr inbounds nuw i8, ptr %0, i64 64
  %13 = tail call i32 @mbedtls_mpi_copy(ptr noundef nonnull %12, ptr noundef nonnull %2) #14
  %.not32 = icmp eq i32 %13, 0
  br i1 %.not32, label %14, label %26

14:                                               ; preds = %11, %10
  %.not33 = icmp eq ptr %3, null
  br i1 %.not33, label %18, label %15

15:                                               ; preds = %14
  %16 = getelementptr inbounds nuw i8, ptr %0, i64 80
  %17 = tail call i32 @mbedtls_mpi_copy(ptr noundef nonnull %16, ptr noundef nonnull %3) #14
  %.not34 = icmp eq i32 %17, 0
  br i1 %.not34, label %18, label %26

18:                                               ; preds = %15, %14
  %.not35 = icmp eq ptr %4, null
  br i1 %.not35, label %22, label %19

19:                                               ; preds = %18
  %20 = getelementptr inbounds nuw i8, ptr %0, i64 48
  %21 = tail call i32 @mbedtls_mpi_copy(ptr noundef nonnull %20, ptr noundef nonnull %4) #14
  %.not36 = icmp eq i32 %21, 0
  br i1 %.not36, label %22, label %26

22:                                               ; preds = %19, %18
  %.not37 = icmp eq ptr %5, null
  br i1 %.not37, label %28, label %23

23:                                               ; preds = %22
  %24 = getelementptr inbounds nuw i8, ptr %0, i64 32
  %25 = tail call i32 @mbedtls_mpi_copy(ptr noundef nonnull %24, ptr noundef nonnull %5) #14
  %.not38 = icmp eq i32 %25, 0
  br i1 %.not38, label %28, label %26

26:                                               ; preds = %23, %19, %15, %11, %7
  %.0 = phi i32 [ %9, %7 ], [ %13, %11 ], [ %17, %15 ], [ %21, %19 ], [ %25, %23 ]
  %27 = add nsw i32 %.0, -16512
  br label %33

28:                                               ; preds = %23, %22
  br i1 %.not, label %33, label %29

29:                                               ; preds = %28
  %30 = getelementptr inbounds nuw i8, ptr %0, i64 16
  %31 = tail call i64 @mbedtls_mpi_size(ptr noundef nonnull %30) #14
  %32 = getelementptr inbounds nuw i8, ptr %0, i64 8
  store i64 %31, ptr %32, align 8, !tbaa !12
  br label %33

33:                                               ; preds = %28, %29, %26
  %.019 = phi i32 [ %27, %26 ], [ 0, %29 ], [ 0, %28 ]
  ret i32 %.019
}